; Function Attrs: mustprogress nounwind uwtable
define internal noundef i32 @_ZN12_GLOBAL__N_121MSHIPNumberingContext23getDeviceManglingNumberEPKN5clang13CXXMethodDeclE(ptr nocapture noundef nonnull readonly align 8 dereferenceable(64) %0, ptr noundef %1) unnamed_addr #0 align 2 {
  %3 = getelementptr inbounds nuw i8, ptr %0, i64 56
  %4 = load ptr, ptr %3, align 8
  %5 = load ptr, ptr %4, align 8
  %6 = getelementptr inbounds i8, ptr %5, i64 16
  %7 = load ptr, ptr %6, align 8
  %8 = tail call noundef i32 %7(ptr noundef nonnull align 8 dereferenceable(12) %4, ptr noundef %1) #12
  ret i32 %8
}